target datalayout = "e-m:e-p270:32:32-p271:32:32-p272:64:64-i64:64-i128:128-f80:128-n8:16:32:64-S128"
target triple = "x86_64-pc-linux-gnu"

%struct.nstime_t = type { i64, i32 }
%struct._packet_info = type { ptr, ptr, i32, i32, %struct.nstime_t, %struct.nstime_t, %struct.nstime_t, i8, ptr, ptr, ptr, ptr, %struct._address, %struct._address, %struct._address, %struct._address, %struct._address, %struct._address, i32, ptr, i8, [3 x i8], %struct.anon, i32, i32, i32, i32, ptr, i8, ptr, ptr, i16, i16, i32, i32, i16, i32, i32, ptr, ptr, ptr, i8, i8, i16, i16, i16, i32, i16, i16, ptr, ptr, ptr, ptr, ptr, i32, i32 }
%struct._address = type { i32, i32, ptr, ptr }
%struct.anon = type { i8, [3 x i8] }

@hf_afp_pad = internal global i32 0, align 4
@hf_afp_file_flag = internal global i32 0, align 4
@hf_afp_struct_size = internal global i32 0, align 4
@hf_afp_struct_size16 = internal global i32 0, align 4
@ett_afp_enumerate_line = internal global i32 0, align 4
@.str.1082 = private unnamed_addr constant [8 x i8] c"line %d\00", align 1

; Function Attrs: null_pointer_is_valid sspstrong uwtable
define internal ptr @name_in_fbitmap(ptr noundef %0, ptr noundef %1, i32 noundef %2, i16 noundef zeroext %3) #1 {
  %5 = alloca ptr, align 8
  %6 = alloca ptr, align 8
  %7 = alloca ptr, align 8
  %8 = alloca i32, align 4
  %9 = alloca i16, align 2
  %10 = alloca ptr, align 8
  %11 = alloca i32, align 4
  store ptr %0, ptr %6, align 8
  store ptr %1, ptr %7, align 8
  store i32 %2, ptr %8, align 4
  store i16 %3, ptr %9, align 2
  call void @llvm.lifetime.start.p0(i64 8, ptr %10) #8
  %12 = load ptr, ptr %6, align 8
  %13 = load ptr, ptr %7, align 8
  %14 = load i32, ptr %8, align 4
  %15 = load i16, ptr %9, align 2
  %16 = call ptr @name_in_bitmap(ptr noundef %12, ptr noundef %13, i32 noundef %14, i16 noundef zeroext %15, i32 noundef 0)
  store ptr %16, ptr %10, align 8
  %17 = load ptr, ptr %10, align 8
  %18 = icmp ne ptr %17, null
  br i1 %18, label %19, label %21

19:                                               ; preds = %4
  %20 = load ptr, ptr %10, align 8
  store ptr %20, ptr %5, align 8
  store i32 1, ptr %11, align 4
  br label %23

21:                                               ; preds = %4
  %22 = load ptr, ptr %10, align 8
  store ptr %22, ptr %5, align 8
  store i32 1, ptr %11, align 4
  br label %23

23:                                               ; preds = %21, %19
  call void @llvm.lifetime.end.p0(i64 8, ptr %10) #8
  %24 = load ptr, ptr %5, align 8
  ret ptr %24
}

; Function Attrs: null_pointer_is_valid sspstrong uwtable
define internal ptr @name_in_dbitmap(ptr noundef %0, ptr noundef %1, i32 noundef %2, i16 noundef zeroext %3) #1 {
  %5 = alloca ptr, align 8
  %6 = alloca ptr, align 8
  %7 = alloca ptr, align 8
  %8 = alloca i32, align 4
  %9 = alloca i16, align 2
  %10 = alloca ptr, align 8
  %11 = alloca i32, align 4
  store ptr %0, ptr %6, align 8
  store ptr %1, ptr %7, align 8
  store i32 %2, ptr %8, align 4
  store i16 %3, ptr %9, align 2
  call void @llvm.lifetime.start.p0(i64 8, ptr %10) #8
  %12 = load ptr, ptr %6, align 8
  %13 = load ptr, ptr %7, align 8
  %14 = load i32, ptr %8, align 4
  %15 = load i16, ptr %9, align 2
  %16 = call ptr @name_in_bitmap(ptr noundef %12, ptr noundef %13, i32 noundef %14, i16 noundef zeroext %15, i32 noundef 1)
  store ptr %16, ptr %10, align 8
  %17 = load ptr, ptr %10, align 8
  %18 = icmp ne ptr %17, null
  br i1 %18, label %19, label %21

19:                                               ; preds = %4
  %20 = load ptr, ptr %10, align 8
  store ptr %20, ptr %5, align 8
  store i32 1, ptr %11, align 4
  br label %23

21:                                               ; preds = %4
  %22 = load ptr, ptr %10, align 8
  store ptr %22, ptr %5, align 8
  store i32 1, ptr %11, align 4
  br label %23

23:                                               ; preds = %21, %19
  call void @llvm.lifetime.end.p0(i64 8, ptr %10) #8
  %24 = load ptr, ptr %5, align 8
  ret ptr %24
}

; Function Attrs: null_pointer_is_valid sspstrong uwtable
define internal i32 @loop_record(ptr noundef %0, ptr noundef %1, ptr noundef %2, i32 noundef %3, i32 noundef %4, i16 noundef zeroext %5, i16 noundef zeroext %6, i32 noundef %7, i32 noundef %8) #1 {
  %10 = alloca i32, align 4
  %11 = alloca ptr, align 8
  %12 = alloca ptr, align 8
  %13 = alloca ptr, align 8
  %14 = alloca i32, align 4
  %15 = alloca i32, align 4
  %16 = alloca i16, align 2
  %17 = alloca i16, align 2
  %18 = alloca i32, align 4
  %19 = alloca i32, align 4
  %20 = alloca ptr, align 8
  %21 = alloca ptr, align 8
  %22 = alloca i8, align 1
  %23 = alloca i32, align 4
  %24 = alloca i32, align 4
  %25 = alloca i32, align 4
  %26 = alloca i32, align 4
  %27 = alloca i32, align 4
  store ptr %0, ptr %11, align 8
  store ptr %1, ptr %12, align 8
  store ptr %2, ptr %13, align 8
  store i32 %3, ptr %14, align 4
  store i32 %4, ptr %15, align 4
  store i16 %5, ptr %16, align 2
  store i16 %6, ptr %17, align 2
  store i32 %7, ptr %18, align 4
  store i32 %8, ptr %19, align 4
  call void @llvm.lifetime.start.p0(i64 8, ptr %20) #8
  store ptr null, ptr %20, align 8
  call void @llvm.lifetime.start.p0(i64 8, ptr %21) #8
  call void @llvm.lifetime.start.p0(i64 1, ptr %22) #8
  call void @llvm.lifetime.start.p0(i64 4, ptr %23) #8
  call void @llvm.lifetime.start.p0(i64 4, ptr %24) #8
  call void @llvm.lifetime.start.p0(i64 4, ptr %25) #8
  call void @llvm.lifetime.start.p0(i64 4, ptr %26) #8
  store i32 0, ptr %25, align 4
  br label %28

28:                                               ; preds = %181, %9
  %29 = load i32, ptr %25, align 4
  %30 = load i32, ptr %15, align 4
  %31 = icmp slt i32 %29, %30
  br i1 %31, label %32, label %184

32:                                               ; preds = %28
  %33 = load i32, ptr %14, align 4
  store i32 %33, ptr %24, align 4
  %34 = load i32, ptr %19, align 4
  %35 = icmp ne i32 %34, 0
  br i1 %35, label %36, label %44

36:                                               ; preds = %32
  %37 = load ptr, ptr %11, align 8
  %38 = load i32, ptr %14, align 4
  %39 = call zeroext i16 @tvb_get_ntohs(ptr noundef %37, i32 noundef %38)
  %40 = zext i16 %39 to i32
  %41 = load i32, ptr %18, align 4
  %42 = mul i32 %41, 2
  %43 = add i32 %40, %42
  store i32 %43, ptr %23, align 4
  store i32 2, ptr %26, align 4
  br label %51

44:                                               ; preds = %32
  %45 = load ptr, ptr %11, align 8
  %46 = load i32, ptr %14, align 4
  %47 = call zeroext i8 @tvb_get_uint8(ptr noundef %45, i32 noundef %46)
  %48 = zext i8 %47 to i32
  %49 = load i32, ptr %18, align 4
  %50 = add i32 %48, %49
  store i32 %50, ptr %23, align 4
  store i32 1, ptr %26, align 4
  br label %51

51:                                               ; preds = %44, %36
  %52 = load i32, ptr %23, align 4
  %53 = icmp ne i32 %52, 0
  br i1 %53, label %56, label %54

54:                                               ; preds = %51
  %55 = load i32, ptr %14, align 4
  store i32 %55, ptr %10, align 4
  store i32 1, ptr %27, align 4
  br label %186

56:                                               ; preds = %51
  %57 = load ptr, ptr %11, align 8
  %58 = load i32, ptr %14, align 4
  %59 = load i32, ptr %26, align 4
  %60 = add i32 %58, %59
  %61 = call zeroext i8 @tvb_get_uint8(ptr noundef %57, i32 noundef %60)
  store i8 %61, ptr %22, align 1
  %62 = load i32, ptr %19, align 4
  %63 = icmp ne i32 %62, 0
  %64 = select i1 %63, i32 2, i32 1
  %65 = load i32, ptr %26, align 4
  %66 = add i32 %65, %64
  store i32 %66, ptr %26, align 4
  %67 = load ptr, ptr %13, align 8
  %68 = icmp ne ptr %67, null
  br i1 %68, label %69, label %113

69:                                               ; preds = %56
  %70 = load i8, ptr %22, align 1
  %71 = icmp ne i8 %70, 0
  br i1 %71, label %72, label %82

72:                                               ; preds = %69
  %73 = load ptr, ptr %12, align 8
  %74 = getelementptr inbounds nuw %struct._packet_info, ptr %73, i32 0, i32 51
  %75 = load ptr, ptr %74, align 8
  %76 = load ptr, ptr %11, align 8
  %77 = load i32, ptr %14, align 4
  %78 = load i32, ptr %26, align 4
  %79 = add i32 %77, %78
  %80 = load i16, ptr %16, align 2
  %81 = call ptr @name_in_dbitmap(ptr noundef %75, ptr noundef %76, i32 noundef %79, i16 noundef zeroext %80)
  store ptr %81, ptr %21, align 8
  br label %92

82:                                               ; preds = %69
  %83 = load ptr, ptr %12, align 8
  %84 = getelementptr inbounds nuw %struct._packet_info, ptr %83, i32 0, i32 51
  %85 = load ptr, ptr %84, align 8
  %86 = load ptr, ptr %11, align 8
  %87 = load i32, ptr %14, align 4
  %88 = load i32, ptr %26, align 4
  %89 = add i32 %87, %88
  %90 = load i16, ptr %17, align 2
  %91 = call ptr @name_in_fbitmap(ptr noundef %85, ptr noundef %86, i32 noundef %89, i16 noundef zeroext %90)
  store ptr %91, ptr %21, align 8
  br label %92

92:                                               ; preds = %82, %72
  %93 = load ptr, ptr %21, align 8
  %94 = icmp ne ptr %93, null
  br i1 %94, label %95, label %103

95:                                               ; preds = %92
  %96 = load ptr, ptr %13, align 8
  %97 = load ptr, ptr %11, align 8
  %98 = load i32, ptr %14, align 4
  %99 = load i32, ptr %23, align 4
  %100 = load i32, ptr @ett_afp_enumerate_line, align 4
  %101 = load ptr, ptr %21, align 8
  %102 = call ptr @proto_tree_add_subtree(ptr noundef %96, ptr noundef %97, i32 noundef %98, i32 noundef %99, i32 noundef %100, ptr noundef null, ptr noundef %101)
  store ptr %102, ptr %20, align 8
  br label %112

103:                                              ; preds = %92
  %104 = load ptr, ptr %13, align 8
  %105 = load ptr, ptr %11, align 8
  %106 = load i32, ptr %14, align 4
  %107 = load i32, ptr %23, align 4
  %108 = load i32, ptr @ett_afp_enumerate_line, align 4
  %109 = load i32, ptr %25, align 4
  %110 = add i32 %109, 1
  %111 = call ptr (ptr, ptr, i32, i32, i32, ptr, ptr, ...) @proto_tree_add_subtree_format(ptr noundef %104, ptr noundef %105, i32 noundef %106, i32 noundef %107, i32 noundef %108, ptr noundef null, ptr noundef @.str.1082, i32 noundef %110)
  store ptr %111, ptr %20, align 8
  br label %112

112:                                              ; preds = %103, %95
  br label %113

113:                                              ; preds = %112, %56
  %114 = load i32, ptr %19, align 4
  %115 = icmp ne i32 %114, 0
  br i1 %115, label %116, label %124

116:                                              ; preds = %113
  %117 = load ptr, ptr %20, align 8
  %118 = load i32, ptr @hf_afp_struct_size16, align 4
  %119 = load ptr, ptr %11, align 8
  %120 = load i32, ptr %14, align 4
  %121 = call ptr @proto_tree_add_item(ptr noundef %117, i32 noundef %118, ptr noundef %119, i32 noundef %120, i32 noundef 2, i32 noundef 0)
  %122 = load i32, ptr %14, align 4
  %123 = add i32 %122, 2
  store i32 %123, ptr %14, align 4
  br label %132

124:                                              ; preds = %113
  %125 = load ptr, ptr %20, align 8
  %126 = load i32, ptr @hf_afp_struct_size, align 4
  %127 = load ptr, ptr %11, align 8
  %128 = load i32, ptr %14, align 4
  %129 = call ptr @proto_tree_add_item(ptr noundef %125, i32 noundef %126, ptr noundef %127, i32 noundef %128, i32 noundef 1, i32 noundef 0)
  %130 = load i32, ptr %14, align 4
  %131 = add i32 %130, 1
  store i32 %131, ptr %14, align 4
  br label %132

132:                                              ; preds = %124, %116
  %133 = load ptr, ptr %20, align 8
  %134 = load i32, ptr @hf_afp_file_flag, align 4
  %135 = load ptr, ptr %11, align 8
  %136 = load i32, ptr %14, align 4
  %137 = call ptr @proto_tree_add_item(ptr noundef %133, i32 noundef %134, ptr noundef %135, i32 noundef %136, i32 noundef 1, i32 noundef 0)
  %138 = load i32, ptr %14, align 4
  %139 = add i32 %138, 1
  store i32 %139, ptr %14, align 4
  %140 = load i32, ptr %19, align 4
  %141 = icmp ne i32 %140, 0
  br i1 %141, label %142, label %150

142:                                              ; preds = %132
  %143 = load ptr, ptr %20, align 8
  %144 = load i32, ptr @hf_afp_pad, align 4
  %145 = load ptr, ptr %11, align 8
  %146 = load i32, ptr %14, align 4
  %147 = call ptr @proto_tree_add_item(ptr noundef %143, i32 noundef %144, ptr noundef %145, i32 noundef %146, i32 noundef 1, i32 noundef 0)
  %148 = load i32, ptr %14, align 4
  %149 = add i32 %148, 1
  store i32 %149, ptr %14, align 4
  br label %150

150:                                              ; preds = %142, %132
  %151 = load i8, ptr %22, align 1
  %152 = icmp ne i8 %151, 0
  br i1 %152, label %153, label %159

153:                                              ; preds = %150
  %154 = load ptr, ptr %20, align 8
  %155 = load ptr, ptr %11, align 8
  %156 = load i32, ptr %14, align 4
  %157 = load i16, ptr %16, align 2
  %158 = call i32 @parse_dir_bitmap(ptr noundef %154, ptr noundef %155, i32 noundef %156, i16 noundef zeroext %157)
  store i32 %158, ptr %14, align 4
  br label %165

159:                                              ; preds = %150
  %160 = load ptr, ptr %20, align 8
  %161 = load ptr, ptr %11, align 8
  %162 = load i32, ptr %14, align 4
  %163 = load i16, ptr %17, align 2
  %164 = call i32 @parse_file_bitmap(ptr noundef %160, ptr noundef %161, i32 noundef %162, i16 noundef zeroext %163, i32 noundef 0)
  store i32 %164, ptr %14, align 4
  br label %165

165:                                              ; preds = %159, %153
  %166 = load i32, ptr %14, align 4
  %167 = and i32 %166, 1
  %168 = icmp ne i32 %167, 0
  br i1 %168, label %169, label %177

169:                                              ; preds = %165
  %170 = load ptr, ptr %20, align 8
  %171 = load i32, ptr @hf_afp_pad, align 4
  %172 = load ptr, ptr %11, align 8
  %173 = load i32, ptr %14, align 4
  %174 = call ptr @proto_tree_add_item(ptr noundef %170, i32 noundef %171, ptr noundef %172, i32 noundef %173, i32 noundef 1, i32 noundef 0)
  %175 = load i32, ptr %14, align 4
  %176 = add i32 %175, 1
  store i32 %176, ptr %14, align 4
  br label %177

177:                                              ; preds = %169, %165
  %178 = load i32, ptr %24, align 4
  %179 = load i32, ptr %23, align 4
  %180 = add i32 %178, %179
  store i32 %180, ptr %14, align 4
  br label %181

181:                                              ; preds = %177
  %182 = load i32, ptr %25, align 4
  %183 = add i32 %182, 1
  store i32 %183, ptr %25, align 4
  br label %28, !llvm.loop !18

184:                                              ; preds = %28
  %185 = load i32, ptr %14, align 4
  store i32 %185, ptr %10, align 4
  store i32 1, ptr %27, align 4
  br label %186

186:                                              ; preds = %184, %54
  call void @llvm.lifetime.end.p0(i64 4, ptr %26) #8
  call void @llvm.lifetime.end.p0(i64 4, ptr %25) #8
  call void @llvm.lifetime.end.p0(i64 4, ptr %24) #8
  call void @llvm.lifetime.end.p0(i64 4, ptr %23) #8
  call void @llvm.lifetime.end.p0(i64 1, ptr %22) #8
  call void @llvm.lifetime.end.p0(i64 8, ptr %21) #8
  call void @llvm.lifetime.end.p0(i64 8, ptr %20) #8
  %187 = load i32, ptr %10, align 4
  ret i32 %187
}