; Function Attrs: null_pointer_is_valid sspstrong uwtable
define internal fastcc i32 @loop_record(ptr noundef %0, ptr noundef readonly captures(none) %1, ptr noundef %2, i32 noundef range(i32 6, 25) %3, i32 noundef %4, i16 noundef zeroext %5, i16 noundef zeroext %6, i32 noundef range(i32 0, 3) %7, i32 noundef range(i32 0, 2) %8) unnamed_addr #1 {
  %10 = icmp sgt i32 %4, 0
  br i1 %10, label %.lr.ph, label %._crit_edge

.lr.ph:                                           ; preds = %9
  %.not = icmp eq i32 %8, 0
  %11 = shl nuw nsw i32 %7, 1
  %12 = select i1 %.not, i32 1, i32 2
  %.not85 = icmp eq ptr %2, null
  %13 = getelementptr inbounds nuw i8, ptr %1, i64 408
  br label %14

14:                                               ; preds = %.lr.ph, %62
  %.07693 = phi i32 [ 0, %.lr.ph ], [ %64, %62 ]
  %.07992 = phi i32 [ %3, %.lr.ph ], [ %63, %62 ]
  %.08191 = phi ptr [ null, %.lr.ph ], [ %.182, %62 ]
  br i1 %.not, label %19, label %15

15:                                               ; preds = %14
  %16 = tail call zeroext i16 @tvb_get_ntohs(ptr noundef %0, i32 noundef %.07992)
  %17 = zext i16 %16 to i32
  %18 = add nuw nsw i32 %11, %17
  br label %23

19:                                               ; preds = %14
  %20 = tail call zeroext i8 @tvb_get_uint8(ptr noundef %0, i32 noundef %.07992)
  %21 = zext i8 %20 to i32
  %22 = add nuw nsw i32 %7, %21
  br label %23

23:                                               ; preds = %19, %15
  %.078 = phi i32 [ %18, %15 ], [ %22, %19 ]
  %.0 = phi i32 [ 2, %15 ], [ 1, %19 ]
  %.not84 = icmp eq i32 %.078, 0
  br i1 %.not84, label %._crit_edge, label %24

24:                                               ; preds = %23
  %25 = add i32 %.0, %.07992
  %26 = tail call zeroext i8 @tvb_get_uint8(ptr noundef %0, i32 noundef %25)
  br i1 %.not85, label %42, label %27

27:                                               ; preds = %24
  %28 = add nuw nsw i32 %.0, %12
  %.not86 = icmp eq i8 %26, 0
  %29 = load ptr, ptr %13, align 8
  %30 = add i32 %28, %.07992
  br i1 %.not86, label %33, label %31

31:                                               ; preds = %27
  %32 = tail call fastcc ptr @name_in_bitmap(ptr noundef %29, ptr noundef %0, i32 noundef %30, i16 noundef zeroext %5, i32 noundef 1)
  br label %35

33:                                               ; preds = %27
  %34 = tail call fastcc ptr @name_in_bitmap(ptr noundef %29, ptr noundef %0, i32 noundef %30, i16 noundef zeroext %6, i32 noundef 0)
  br label %35

35:                                               ; preds = %33, %31
  %.080 = phi ptr [ %32, %31 ], [ %34, %33 ]
  %.not87 = icmp eq ptr %.080, null
  %36 = load i32, ptr @ett_afp_enumerate_line, align 4
  br i1 %.not87, label %39, label %37

37:                                               ; preds = %35
  %38 = tail call ptr @proto_tree_add_subtree(ptr noundef nonnull %2, ptr noundef %0, i32 noundef %.07992, i32 noundef %.078, i32 noundef %36, ptr noundef null, ptr noundef nonnull %.080)
  br label %42

39:                                               ; preds = %35
  %40 = add nuw nsw i32 %.07693, 1
  %41 = tail call ptr (ptr, ptr, i32, i32, i32, ptr, ptr, ...) @proto_tree_add_subtree_format(ptr noundef nonnull %2, ptr noundef %0, i32 noundef %.07992, i32 noundef %.078, i32 noundef %36, ptr noundef null, ptr noundef nonnull @.str.1082, i32 noundef %40)
  br label %42

42:                                               ; preds = %37, %39, %24
  %.182 = phi ptr [ %38, %37 ], [ %41, %39 ], [ %.08191, %24 ]
  br i1 %.not, label %.thread, label %43

43:                                               ; preds = %42
  %44 = load i32, ptr @hf_afp_struct_size16, align 4
  %45 = tail call ptr @proto_tree_add_item(ptr noundef %.182, i32 noundef %44, ptr noundef %0, i32 noundef %.07992, i32 noundef 2, i32 noundef 0)
  %46 = add i32 %.07992, 2
  br label %.thread

.thread:                                          ; preds = %42, %43
  %hf_afp_struct_size.sink = phi ptr [ @hf_afp_file_flag, %43 ], [ @hf_afp_struct_size, %42 ]
  %.07992.sink = phi i32 [ %46, %43 ], [ %.07992, %42 ]
  %.sink98 = phi i32 [ 3, %43 ], [ 1, %42 ]
  %hf_afp_file_flag.sink = phi ptr [ @hf_afp_pad, %43 ], [ @hf_afp_file_flag, %42 ]
  %.sink = phi i32 [ 4, %43 ], [ 2, %42 ]
  %47 = load i32, ptr %hf_afp_struct_size.sink, align 4
  %48 = tail call ptr @proto_tree_add_item(ptr noundef %.182, i32 noundef %47, ptr noundef %0, i32 noundef %.07992.sink, i32 noundef 1, i32 noundef 0)
  %49 = add i32 %.07992, %.sink98
  %50 = load i32, ptr %hf_afp_file_flag.sink, align 4
  %51 = tail call ptr @proto_tree_add_item(ptr noundef %.182, i32 noundef %50, ptr noundef %0, i32 noundef %49, i32 noundef 1, i32 noundef 0)
  %52 = add i32 %.07992, %.sink
  %.not88 = icmp eq i8 %26, 0
  br i1 %.not88, label %55, label %53

53:                                               ; preds = %.thread
  %54 = tail call fastcc i32 @parse_dir_bitmap(ptr noundef %.182, ptr noundef %0, i32 noundef %52, i16 noundef zeroext %5)
  br label %57

55:                                               ; preds = %.thread
  %56 = tail call fastcc i32 @parse_file_bitmap(ptr noundef %.182, ptr noundef %0, i32 noundef %52, i16 noundef zeroext %6, i32 noundef 0)
  br label %57

57:                                               ; preds = %55, %53
  %.3 = phi i32 [ %54, %53 ], [ %56, %55 ]
  %58 = and i32 %.3, 1
  %.not89 = icmp eq i32 %58, 0
  br i1 %.not89, label %62, label %59

59:                                               ; preds = %57
  %60 = load i32, ptr @hf_afp_pad, align 4
  %61 = tail call ptr @proto_tree_add_item(ptr noundef %.182, i32 noundef %60, ptr noundef %0, i32 noundef %.3, i32 noundef 1, i32 noundef 0)
  br label %62

62:                                               ; preds = %59, %57
  %63 = add i32 %.078, %.07992
  %64 = add nuw nsw i32 %.07693, 1
  %exitcond.not = icmp eq i32 %64, %4
  br i1 %exitcond.not, label %._crit_edge, label %14, !llvm.loop !16

._crit_edge:                                      ; preds = %23, %62, %9
  %.079.lcssa = phi i32 [ %3, %9 ], [ %63, %62 ], [ %.07992, %23 ]
  ret i32 %.079.lcssa
}